target datalayout = "e-m:e-p270:32:32-p271:32:32-p272:64:64-i64:64-i128:128-f80:128-n8:16:32:64-S128"
target triple = "x86_64-pc-linux-gnu"

%struct.GCRef = type { i64 }
%struct.CTState = type { ptr, i32, i32, ptr, ptr, ptr, %struct.CCallback, [128 x i16] }
%struct.CCallback = type { [8 x %union.FPRCBArg], [8 x i64], ptr, ptr, ptr, i32, i32, i32 }
%union.FPRCBArg = type { double }
%struct.GCstr = type { %struct.GCRef, i8, i8, i8, i8, i32, i32, i32 }

; Function Attrs: noreturn nounwind uwtable
define internal void @cconv_err_initov(ptr noundef %0, ptr noundef %1) #5 {
  %3 = alloca ptr, align 8
  %4 = alloca ptr, align 8
  %5 = alloca ptr, align 8
  store ptr %0, ptr %3, align 8, !tbaa !4
  store ptr %1, ptr %4, align 8, !tbaa !9
  call void @llvm.lifetime.start.p0(i64 8, ptr %5) #9
  %6 = load ptr, ptr %3, align 8, !tbaa !4
  %7 = getelementptr inbounds nuw %struct.CTState, ptr %6, i32 0, i32 3
  %8 = load ptr, ptr %7, align 8, !tbaa !34
  %9 = load ptr, ptr %4, align 8, !tbaa !9
  %10 = load ptr, ptr %3, align 8, !tbaa !4
  %11 = getelementptr inbounds nuw %struct.CTState, ptr %10, i32 0, i32 0
  %12 = load ptr, ptr %11, align 8, !tbaa !42
  %13 = ptrtoint ptr %9 to i64
  %14 = ptrtoint ptr %12 to i64
  %15 = sub i64 %13, %14
  %16 = sdiv exact i64 %15, 24
  %17 = trunc i64 %16 to i32
  %18 = call ptr @lj_ctype_repr(ptr noundef %8, i32 noundef %17, ptr noundef null)
  %19 = getelementptr inbounds %struct.GCstr, ptr %18, i64 1
  store ptr %19, ptr %5, align 8, !tbaa !21
  %20 = load ptr, ptr %3, align 8, !tbaa !4
  %21 = getelementptr inbounds nuw %struct.CTState, ptr %20, i32 0, i32 3
  %22 = load ptr, ptr %21, align 8, !tbaa !34
  %23 = load ptr, ptr %5, align 8, !tbaa !21
  call void (ptr, i32, ...) @lj_err_callerv(ptr noundef %22, i32 noundef 3208, ptr noundef %23) #10
  unreachable
}