; Function Attrs: noreturn nounwind uwtable
define internal fastcc void @cconv_err_initov(ptr noundef readonly captures(none) %0, ptr noundef %1) unnamed_addr #5 {
  %3 = getelementptr inbounds nuw i8, ptr %0, i64 16
  %4 = load ptr, ptr %3, align 8, !tbaa !35
  %5 = load ptr, ptr %0, align 8, !tbaa !4
  %6 = ptrtoint ptr %1 to i64
  %7 = ptrtoint ptr %5 to i64
  %8 = sub i64 %6, %7
  %9 = sdiv exact i64 %8, 24
  %10 = trunc i64 %9 to i32
  %11 = tail call ptr @lj_ctype_repr(ptr noundef %4, i32 noundef %10, ptr noundef null) #9
  %12 = getelementptr inbounds nuw i8, ptr %11, i64 24
  %13 = load ptr, ptr %3, align 8, !tbaa !35
  tail call void (ptr, i32, ...) @lj_err_callerv(ptr noundef %13, i32 noundef 3208, ptr noundef nonnull %12) #11
  unreachable
}